target datalayout = "e-m:e-p270:32:32-p271:32:32-p272:64:64-i64:64-i128:128-f80:128-n8:16:32:64-S128"
target triple = "x86_64-pc-linux-gnu"

%struct.xlist = type { i32, i32, ptr, ptr, ptr, ptr, %union.pthread_rwlock_t, ptr, ptr, [0 x %struct.listNode] }
%union.pthread_rwlock_t = type { %struct.__pthread_rwlock_arch_t }
%struct.__pthread_rwlock_arch_t = type { i32, i32, i32, i32, i32, i32, i32, i32, i8, [7 x i8], i64, i32 }
%struct.listNode = type { ptr, ptr }
%struct.listIterator = type { i32, ptr, ptr, ptr, ptr }

@.str.2 = private unnamed_addr constant [32 x i8] c"%s: pthread_rwlock_wrlock(): %m\00", align 1
@.str.3 = private unnamed_addr constant [32 x i8] c"%s: pthread_rwlock_unlock(): %m\00", align 1
@__func__.list_iterator_reset = private unnamed_addr constant [20 x i8] c"list_iterator_reset\00", align 1

; Function Attrs: nounwind uwtable
define dso_local void @list_iterator_reset(ptr noundef %0) #0 {
  %2 = alloca ptr, align 8
  %3 = alloca i32, align 4
  %4 = alloca i32, align 4
  store ptr %0, ptr %2, align 8
  br label %5

5:                                                ; preds = %1
  call void @llvm.lifetime.start.p0(i64 4, ptr %3) #6
  %6 = load ptr, ptr %2, align 8
  %7 = getelementptr inbounds nuw %struct.listIterator, ptr %6, i32 0, i32 1
  %8 = load ptr, ptr %7, align 8
  %9 = getelementptr inbounds nuw %struct.xlist, ptr %8, i32 0, i32 6
  %10 = call i32 @pthread_rwlock_wrlock(ptr noundef %9) #6
  store i32 %10, ptr %3, align 4
  %11 = load i32, ptr %3, align 4
  %12 = icmp ne i32 %11, 0
  br i1 %12, label %13, label %16

13:                                               ; preds = %5
  %14 = load i32, ptr %3, align 4
  %15 = call ptr @__errno_location() #7
  store i32 %14, ptr %15, align 4
  call void (ptr, ...) @fatal_abort(ptr noundef @.str.2, ptr noundef @__func__.list_iterator_reset) #8
  unreachable

16:                                               ; preds = %5
  call void @llvm.lifetime.end.p0(i64 4, ptr %3) #6
  br label %17

17:                                               ; preds = %16
  %18 = load ptr, ptr %2, align 8
  %19 = getelementptr inbounds nuw %struct.listIterator, ptr %18, i32 0, i32 1
  %20 = load ptr, ptr %19, align 8
  %21 = getelementptr inbounds nuw %struct.xlist, ptr %20, i32 0, i32 2
  %22 = load ptr, ptr %21, align 8
  %23 = load ptr, ptr %2, align 8
  %24 = getelementptr inbounds nuw %struct.listIterator, ptr %23, i32 0, i32 2
  store ptr %22, ptr %24, align 8
  %25 = load ptr, ptr %2, align 8
  %26 = getelementptr inbounds nuw %struct.listIterator, ptr %25, i32 0, i32 1
  %27 = load ptr, ptr %26, align 8
  %28 = getelementptr inbounds nuw %struct.xlist, ptr %27, i32 0, i32 2
  %29 = load ptr, ptr %2, align 8
  %30 = getelementptr inbounds nuw %struct.listIterator, ptr %29, i32 0, i32 3
  store ptr %28, ptr %30, align 8
  br label %31

31:                                               ; preds = %17
  call void @llvm.lifetime.start.p0(i64 4, ptr %4) #6
  %32 = load ptr, ptr %2, align 8
  %33 = getelementptr inbounds nuw %struct.listIterator, ptr %32, i32 0, i32 1
  %34 = load ptr, ptr %33, align 8
  %35 = getelementptr inbounds nuw %struct.xlist, ptr %34, i32 0, i32 6
  %36 = call i32 @pthread_rwlock_unlock(ptr noundef %35) #6
  store i32 %36, ptr %4, align 4
  %37 = load i32, ptr %4, align 4
  %38 = icmp ne i32 %37, 0
  br i1 %38, label %39, label %42

39:                                               ; preds = %31
  %40 = load i32, ptr %4, align 4
  %41 = call ptr @__errno_location() #7
  store i32 %40, ptr %41, align 4
  call void (ptr, ...) @fatal_abort(ptr noundef @.str.3, ptr noundef @__func__.list_iterator_reset) #8
  unreachable

42:                                               ; preds = %31
  call void @llvm.lifetime.end.p0(i64 4, ptr %4) #6
  br label %43

43:                                               ; preds = %42
  ret void
}