; Function Attrs: nounwind uwtable
define dso_local void @list_iterator_reset(ptr noundef captures(none) %0) #0 {
  %2 = getelementptr inbounds nuw i8, ptr %0, i64 8
  %3 = load ptr, ptr %2, align 8
  %4 = getelementptr inbounds nuw i8, ptr %3, i64 40
  %5 = tail call i32 @pthread_rwlock_wrlock(ptr noundef nonnull %4) #9
  %.not = icmp eq i32 %5, 0
  br i1 %.not, label %8, label %6

6:                                                ; preds = %1
  %7 = tail call ptr @__errno_location() #10
  store i32 %5, ptr %7, align 4
  tail call void (ptr, ...) @fatal_abort(ptr noundef nonnull @.str.2, ptr noundef nonnull @__func__.list_iterator_reset) #11
  unreachable

8:                                                ; preds = %1
  %9 = load ptr, ptr %2, align 8
  %10 = getelementptr inbounds nuw i8, ptr %9, i64 8
  %11 = load ptr, ptr %10, align 8
  %12 = getelementptr inbounds nuw i8, ptr %0, i64 16
  store ptr %11, ptr %12, align 8
  %13 = getelementptr inbounds nuw i8, ptr %0, i64 24
  store ptr %10, ptr %13, align 8
  %14 = getelementptr inbounds nuw i8, ptr %9, i64 40
  %15 = tail call i32 @pthread_rwlock_unlock(ptr noundef nonnull %14) #9
  %.not10 = icmp eq i32 %15, 0
  br i1 %.not10, label %18, label %16

16:                                               ; preds = %8
  %17 = tail call ptr @__errno_location() #10
  store i32 %15, ptr %17, align 4
  tail call void (ptr, ...) @fatal_abort(ptr noundef nonnull @.str.3, ptr noundef nonnull @__func__.list_iterator_reset) #11
  unreachable

18:                                               ; preds = %8
  ret void
}